; Function Attrs: nounwind uwtable
define void @duckdb_je_pa_shard_postfork_parent(ptr noundef %0, ptr noundef %1) local_unnamed_addr #0 {
  %3 = getelementptr inbounds nuw i8, ptr %1, i64 68104
  tail call void @duckdb_je_edata_cache_postfork_parent(ptr noundef %0, ptr noundef nonnull %3) #5
  %4 = getelementptr inbounds nuw i8, ptr %1, i64 80
  tail call void @duckdb_je_ecache_postfork_parent(ptr noundef %0, ptr noundef nonnull %4) #5
  %5 = getelementptr inbounds nuw i8, ptr %1, i64 19520
  tail call void @duckdb_je_ecache_postfork_parent(ptr noundef %0, ptr noundef nonnull %5) #5
  %6 = getelementptr inbounds nuw i8, ptr %1, i64 38960
  tail call void @duckdb_je_ecache_postfork_parent(ptr noundef %0, ptr noundef nonnull %6) #5
  %7 = getelementptr inbounds nuw i8, ptr %1, i64 58432
  tail call void @duckdb_je_malloc_mutex_postfork_parent(ptr noundef %0, ptr noundef nonnull %7) #5
  %8 = getelementptr inbounds nuw i8, ptr %1, i64 58672
  tail call void @duckdb_je_malloc_mutex_postfork_parent(ptr noundef %0, ptr noundef nonnull %8) #5
  %9 = getelementptr inbounds nuw i8, ptr %1, i64 60456
  tail call void @duckdb_je_malloc_mutex_postfork_parent(ptr noundef %0, ptr noundef nonnull %9) #5
  %10 = getelementptr inbounds nuw i8, ptr %1, i64 17
  %11 = load i8, ptr %10, align 1, !tbaa !3, !range !49, !noundef !50
  %12 = trunc nuw i8 %11 to i1
  br i1 %12, label %13, label %16

13:                                               ; preds = %2
  %14 = getelementptr inbounds nuw i8, ptr %1, i64 62264
  tail call void @duckdb_je_sec_postfork_parent(ptr noundef %0, ptr noundef nonnull %14) #5
  %15 = getelementptr inbounds nuw i8, ptr %1, i64 62384
  tail call void @duckdb_je_hpa_shard_postfork_parent(ptr noundef %0, ptr noundef nonnull %15) #5
  br label %16

16:                                               ; preds = %13, %2
  ret void
}